; Function Attrs: mustprogress nofree norecurse nosync nounwind willreturn memory(read, inaccessiblemem: none) uwtable
define noundef zeroext i1 @_ZNK10open_spiel9gin_rummy13GinRummyUtils10IsRankMeldERKSt6vectorIiSaIiEE(ptr nocapture noundef nonnull readonly align 8 dereferenceable(120) %0, ptr nocapture noundef nonnull readonly align 8 dereferenceable(24) %1) local_unnamed_addr #7 align 2 {
  %3 = getelementptr inbounds nuw i8, ptr %1, i64 8
  %4 = load ptr, ptr %3, align 8
  %5 = load ptr, ptr %1, align 8
  %6 = ptrtoint ptr %4 to i64
  %7 = ptrtoint ptr %5 to i64
  %8 = sub i64 %6, %7
  %9 = ashr exact i64 %8, 2
  %.off = add nsw i64 %9, -3
  %switch = icmp ult i64 %.off, 2
  br i1 %switch, label %.lr.ph, label %.loopexit

.lr.ph:                                           ; preds = %2
  %10 = load i32, ptr %5, align 4
  %11 = load i32, ptr %0, align 8
  %12 = srem i32 %10, %11
  br label %13

13:                                               ; preds = %13, %.lr.ph
  %indvars.iv = phi i64 [ 1, %.lr.ph ], [ %indvars.iv.next, %13 ]
  %14 = getelementptr inbounds i32, ptr %5, i64 %indvars.iv
  %15 = load i32, ptr %14, align 4
  %16 = srem i32 %15, %11
  %.not12 = icmp eq i32 %12, %16
  %indvars.iv.next = add nuw i64 %indvars.iv, 1
  %exitcond.not = icmp ne i64 %indvars.iv.next, %9
  %or.cond.not = select i1 %.not12, i1 %exitcond.not, i1 false
  br i1 %or.cond.not, label %13, label %.loopexit, !llvm.loop !20

.loopexit:                                        ; preds = %13, %2
  %.09 = phi i1 [ false, %2 ], [ %.not12, %13 ]
  ret i1 %.09
}